target datalayout = "e-m:e-p270:32:32-p271:32:32-p272:64:64-i64:64-i128:128-f80:128-n8:16:32:64-S128"
target triple = "x86_64-unknown-linux-gnu"

%struct.RISCVAclintMTimerState = type { %struct.SysBusDevice, i64, ptr, ptr, %struct.MemoryRegion, i32, i32, i32, i32, i32, i32, ptr }
%struct.SysBusDevice = type { %struct.DeviceState, i32, [32 x %struct.anon], i32, [32 x i32] }
%struct.DeviceState = type { %struct.Object, ptr, ptr, i8, i8, i64, ptr, i32, i8, ptr, %struct.NamedGPIOListHead, %struct.NamedClockListHead, %struct.BusStateHead, i32, i32, i32, %struct.ResettableState, ptr, %struct.MemReentrancyGuard }
%struct.Object = type { ptr, ptr, ptr, i32, ptr }
%struct.NamedGPIOListHead = type { ptr }
%struct.NamedClockListHead = type { ptr }
%struct.BusStateHead = type { ptr }
%struct.ResettableState = type { i32, i8, i8 }
%struct.MemReentrancyGuard = type { i8 }
%struct.anon = type { i64, ptr }
%struct.MemoryRegion = type { %struct.Object, i8, i8, i8, i8, i8, i8, i8, i8, i8, i8, ptr, ptr, ptr, ptr, ptr, ptr, i32, i128, i64, ptr, i64, i8, i8, i8, i8, i8, ptr, i64, i32, %union.anon, %union.anon.0, %union.anon.1, ptr, i32, ptr, ptr, i8 }
%union.anon = type { %struct.QTailQLink }
%struct.QTailQLink = type { ptr, ptr }
%union.anon.0 = type { %struct.QTailQLink }
%union.anon.1 = type { %struct.QTailQLink }

@.str = private unnamed_addr constant [20 x i8] c"riscv.aclint.mtimer\00", align 1
@.str.1 = private unnamed_addr constant [31 x i8] c"../qemu/hw/intc/riscv_aclint.c\00", align 1
@__func__.riscv_aclint_mtimer_reset_enter = private unnamed_addr constant [32 x i8] c"riscv_aclint_mtimer_reset_enter\00", align 1

; Function Attrs: nounwind sspstrong uwtable
define internal void @riscv_aclint_mtimer_reset_enter(ptr noundef %obj, i32 noundef %type) #0 {
entry:
  %obj.addr = alloca ptr, align 8
  %type.addr = alloca i32, align 4
  %mtimer = alloca ptr, align 8
  store ptr %obj, ptr %obj.addr, align 8
  store i32 %type, ptr %type.addr, align 4
  %0 = load ptr, ptr %obj.addr, align 8
  %call = call ptr @object_dynamic_cast_assert(ptr noundef %0, ptr noundef @.str, ptr noundef @.str.1, i32 noundef 311, ptr noundef @__func__.riscv_aclint_mtimer_reset_enter)
  store ptr %call, ptr %mtimer, align 8
  %1 = load ptr, ptr %mtimer, align 8
  %2 = load ptr, ptr %mtimer, align 8
  %time_base = getelementptr inbounds %struct.RISCVAclintMTimerState, ptr %2, i32 0, i32 8
  %3 = load i32, ptr %time_base, align 4
  %conv = zext i32 %3 to i64
  call void @riscv_aclint_mtimer_write(ptr noundef %1, i64 noundef %conv, i64 noundef 0, i32 noundef 8)
  ret void
}