; Function Attrs: nounwind sspstrong uwtable
define internal void @riscv_aclint_mtimer_reset_enter(ptr noundef %obj, i32 %type) #0 {
entry:
  %call = tail call ptr @object_dynamic_cast_assert(ptr noundef %obj, ptr noundef nonnull @.str, ptr noundef nonnull @.str.1, i32 noundef 311, ptr noundef nonnull @__func__.riscv_aclint_mtimer_reset_enter) #6
  %time_base = getelementptr inbounds nuw i8, ptr %call, i64 1132
  %0 = load i32, ptr %time_base, align 4
  %conv = zext i32 %0 to i64
  tail call void @riscv_aclint_mtimer_write(ptr noundef %call, i64 noundef %conv, i64 noundef 0, i32 noundef 8)
  ret void
}